(lp0
F783.0486559867859
aF1518.7022540569305
aF2420.7196531295776
aF3125.8617470264435
aF3776.6232080459595
aF4463.37615609169
aF5130.468779087067
aF5793.919239997864
aF6444.656443119049
aF7087.268317937851
aF7730.670673131943
aF8370.793931007385
aF9021.634098052979
aF9681.74434709549
aF10324.86671590805
a.