(lp0
F777.1323449611664
aF1491.3063061237335
aF2212.507462978363
aF2999.2913579940796
aF3661.8647520542145
aF4457.342752933502
aF5320.580146074295
aF6109.511965036392
aF6877.4330949783325
aF7601.206532001495
aF8514.846364974976
aF9206.36150097847
aF10025.59506893158
aF10708.760622024536
aF11587.978240966797
aF12249.957941055298
aF13169.115539073944
aF14102.439535140991
aF15045.72321009636
aF15929.695348024368
aF16709.916652917862
aF17604.00209712982
aF18536.549257993698
aF19385.85343003273
aF20172.27132511139
aF21014.205559015274
aF21878.516463041306
aF22673.98042702675
aF23534.3585460186
aF24304.60984301567
aF25144.314532995224
aF25951.49029994011
aF26879.764960050583
aF27677.008168935776
aF28544.122195005417
aF29346.290563106537
aF30109.83961892128
aF30996.05815911293
aF31670.870722055435
aF32512.564615011215
aF33179.91820502281
aF33939.6610250473
aF34874.497072935104
aF35694.31514215469
aF36461.229017972946
aF37295.988323926926
aF38030.18638205528
aF38816.70806193352
aF39540.78279900551
aF40250.6200170517
aF41031.85000395775
aF41873.67118501663
aF42594.26946091652
aF43300.82473897934
aF44082.327338933945
aF44718.02204799652
aF45521.47713303566
aF46155.82893013954
aF46864.032853126526
aF47498.79185605049
aF48341.16039896011
aF49249.793931007385
aF50082.80888199806
aF50831.910130023956
aF51480.16497993469
aF52303.00910997391
aF53086.82964897156
aF53856.98042798042
aF54583.70993804932
aF55456.32477593422
aF56203.6180229187
aF57125.92891097069
aF58013.95563006401
aF58794.33385705948
aF59586.32946515083
aF60395.72556805611
aF61143.5473511219
aF61797.73052191734
aF62552.37285709381
aF63325.66246294975
aF64267.43733501434
aF65166.76317214966
aF65905.92658805847
aF66758.093791008
aF67499.0098619461
aF68389.76130104065
aF69201.70078802109
aF69840.09086108208
aF70604.1869559288
aF71294.75657510757
aF72072.70038294792
aF72839.30629897118
aF73564.03341507912
aF74313.20760011673
aF74948.2405591011
aF75783.82895112038
aF76624.94221711159
aF77398.58978796005
aF78099.96823000908
aF78972.0916800499
aF79787.1982729435
aF80460.37051200867
aF81096.3311650753
aF81975.75174713135
aF82686.3696539402
aF83573.63349795341
aF84474.12800908089
aF85266.17666506767
aF86026.50089812279
aF86880.64108109474
aF87629.54774212837
aF88260.9236741066
aF88963.38119792938
aF89822.70545196533
aF90461.04207396507
aF91108.70756411552
aF91804.50149703026
aF92502.40134215355
aF93299.02430510521
aF94113.83935809135
aF94787.73169493675
aF95536.84198403358
aF96326.04225993156
aF96972.81508302689
aF97656.3891711235
aF98366.86154913902
aF99158.81619405746
aF99786.82081103325
aF100579.81751799583
aF101226.48052096367
aF101945.93374300003
aF102817.74811196327
aF103645.94373106956
aF104272.44557595253
aF104974.27035999298
aF105829.0846130848
aF106549.21346712112
aF107364.15133595467
aF108081.60150194168
aF108855.82171010971
aF109487.64338994026
aF110298.92222905159
aF111044.90337514877
aF111776.72635793686
aF112541.45215201378
aF113364.78464794159
aF114046.71008396149
aF114847.5902659893
aF115671.12035608292
aF116505.38880109787
aF117161.02267408371
aF117982.70242500305
aF118717.58236312866
aF119448.57633495331
aF120252.56138896942
aF121054.43828105927
aF121768.13813495636
aF122641.38419699669
aF123415.81161594391
aF124313.04126811028
aF125073.57076191902
aF125761.1946220398
aF126412.43958806992
aF127146.15462303162
aF127860.79261398315
aF128513.32484912872
aF129140.63363909721
aF129956.08188199997
aF130785.66724514961
aF131562.68420004845
aF132206.88887810707
aF132898.61757397652
aF133532.40462303162
aF134158.4533150196
aF134784.62346100807
aF135410.60592508316
aF136036.7063410282
aF136661.82134199142
aF137286.70781707764
aF137912.26352405548
aF138538.09659600258
aF139164.42248106003
aF139790.40628695488
aF140416.4119989872
aF141042.33984994888
aF141668.26255607605
aF142294.350990057
aF142921.09626412392
aF143547.54628109932
aF144173.47572398186
aF144799.18852710724
aF145424.39593100548
aF146049.6757929325
aF146675.03171801567
aF147300.1843099594
aF147925.65250992775
aF148550.80223107338
aF149176.05649614334
aF149801.5914580822
aF150426.70161914825
a.