(lp0
F146.03307390213013
aF146.75607800483704
aF147.28586792945862
aF146.70049500465393
aF146.2858428955078
aF146.98928689956665
aF145.97726702690125
aF146.9419069290161
aF146.7428240776062
aF146.89862513542175
aF146.89629101753235
aF147.01282501220703
aF146.5339138507843
aF147.27179598808289
aF146.6176609992981
aF146.63032793998718
aF146.04795503616333
aF148.00503396987915
aF145.87620997428894
aF147.2599060535431
aF146.53710889816284
aF147.04047179222107
aF146.51398396492004
aF147.514741897583
aF146.8157091140747
aF147.04702305793762
aF146.77232789993286
aF147.4567129611969
aF146.6799910068512
aF147.29246997833252
aF146.72500801086426
aF147.08312797546387
aF146.68095803260803
aF146.96330904960632
aF146.6893801689148
aF147.3547239303589
aF146.24280214309692
aF147.57538604736328
aF146.4372808933258
aF147.7060980796814
aF146.3593180179596
aF145.7263469696045
aF143.39842796325684
aF147.66454696655273
aF146.67079901695251
aF147.66214203834534
aF147.0365388393402
aF147.5056300163269
aF147.20314502716064
aF147.30033993721008
aF147.16404104232788
aF147.32484197616577
aF146.9755780696869
aF148.07258796691895
aF147.3395481109619
aF148.00756192207336
aF147.45023703575134
aF147.26554489135742
aF147.5937271118164
aF147.64492011070251
aF147.36896991729736
aF147.60358095169067
aF147.23498392105103
aF147.27229499816895
aF147.0233678817749
aF147.2369728088379
aF147.01072001457214
aF147.53433299064636
aF147.0371060371399
aF147.95294094085693
aF146.90106010437012
aF147.78143787384033
aF147.9033169746399
aF147.2145550251007
aF147.1285798549652
aF147.63234519958496
aF147.12811708450317
aF148.22547101974487
aF147.7027177810669
aF148.0509581565857
aF147.32601618766785
aF147.15503811836243
aF147.0938229560852
aF147.64449310302734
aF147.38797688484192
aF147.98130297660828
aF147.2799470424652
aF147.95752882957458
aF147.06874704360962
aF147.58723282814026
aF147.29916787147522
aF147.21457886695862
aF147.16870999336243
aF147.89411091804504
aF146.8974220752716
aF148.08128714561462
aF147.4240038394928
aF147.6788148880005
aF146.88738989830017
aF147.58054518699646
aF147.62326002120972
aF148.17238593101501
aF147.34968209266663
aF147.23967695236206
aF147.35108494758606
aF147.91486406326294
aF147.27644109725952
aF147.66206693649292
aF146.9729220867157
aF147.26733088493347
aF147.8487730026245
aF147.80449795722961
aF147.55866479873657
aF148.18010091781616
aF147.52046918869019
aF147.9936559200287
aF147.37966799736023
aF148.04590392112732
aF146.83273601531982
aF147.67943596839905
aF147.57611680030823
aF148.31957697868347
aF147.09801697731018
aF147.91811394691467
aF147.74224495887756
aF147.44871616363525
aF147.4105348587036
aF148.35515689849854
aF147.40353989601135
aF147.54197096824646
aF148.0868799686432
aF147.50971603393555
aF147.0475628376007
aF148.45267605781555
aF147.64656805992126
aF147.87552213668823
aF147.016597032547
aF148.12134289741516
aF147.25093388557434
aF148.06899905204773
aF147.09976816177368
aF147.74681186676025
aF147.24032402038574
aF148.00100588798523
aF147.1411418914795
aF147.6317901611328
aF147.51504492759705
aF147.73272585868835
aF146.98603701591492
a.