(lp0
F155.53811883926392
aF156.62874794006348
aF154.65185284614563
aF155.90059995651245
aF155.3272898197174
aF155.0096960067749
aF156.035462141037
aF155.6271870136261
aF153.87935996055603
aF157.7352101802826
aF154.41831994056702
aF157.31926608085632
aF156.92180109024048
aF156.8625030517578
aF156.80368089675903
aF157.36291599273682
aF156.32512497901917
aF158.47234392166138
aF156.83038997650146
aF157.42409205436707
aF156.79689693450928
aF157.4726071357727
aF154.47932696342468
aF156.97801613807678
aF156.6635000705719
aF156.58422684669495
aF156.4658908843994
aF157.52854990959167
aF155.10667991638184
aF156.41309213638306
aF155.01792812347412
aF155.67925000190735
aF156.14919996261597
aF156.62316703796387
aF155.82948207855225
aF154.03663396835327
aF157.30489420890808
aF156.8053810596466
aF155.00391507148743
aF157.66363191604614
aF155.40389013290405
aF155.3598940372467
aF156.23709988594055
aF155.52328610420227
aF156.35058403015137
aF157.34929299354553
aF153.86717200279236
aF155.7339050769806
aF155.26231598854065
aF155.85660791397095
aF155.02645206451416
aF154.95976185798645
aF155.68000102043152
aF156.60366892814636
aF153.58989191055298
aF155.22132301330566
aF154.67416977882385
aF156.82634496688843
aF154.80226802825928
aF156.03581500053406
aF155.92716908454895
aF153.65086817741394
aF154.21197414398193
aF155.62443113327026
aF153.73103404045105
aF157.1554720401764
aF153.34989309310913
aF155.03603506088257
aF153.59508895874023
aF154.01594400405884
aF154.82680797576904
aF155.05815410614014
aF152.7145960330963
aF155.2390329837799
aF154.15427494049072
aF155.43159317970276
aF155.87214493751526
aF154.6263189315796
aF155.39945197105408
aF155.73225593566895
aF153.14966797828674
aF155.44399619102478
aF157.13912391662598
aF154.897864818573
aF155.0376000404358
aF156.48186993598938
aF154.12815499305725
aF156.79354000091553
aF154.73020887374878
aF155.88105297088623
aF156.20425510406494
aF155.60898518562317
aF156.41057205200195
aF157.30741500854492
aF153.90167093276978
aF155.42464995384216
aF154.97711515426636
aF158.09322905540466
aF154.7881031036377
aF155.83772015571594
aF154.29012298583984
aF157.90290093421936
aF154.9279022216797
aF156.44317412376404
aF156.5969648361206
aF155.16471219062805
aF155.70021796226501
aF157.3661379814148
aF155.91611695289612
aF158.32581186294556
aF156.201416015625
aF156.42322707176208
aF157.53397703170776
aF157.60954523086548
aF156.12136793136597
aF157.4675920009613
aF156.9680688381195
aF158.2769329547882
aF156.7393660545349
aF155.66534686088562
aF154.75138211250305
aF155.61185693740845
aF155.26647901535034
aF156.25746512413025
aF155.2376790046692
aF157.52046394348145
aF154.58054304122925
aF157.27483105659485
aF155.19245386123657
aF155.1352469921112
aF156.17593097686768
aF155.8572859764099
aF154.79432106018066
aF155.08993792533875
aF153.49281406402588
aF156.39853286743164
aF154.6777799129486
aF155.06851816177368
aF155.108628988266
aF155.79083013534546
aF155.76532983779907
aF154.49045300483704
aF154.32398796081543
aF155.8358108997345
aF153.99893403053284
aF156.20949697494507
aF155.43760418891907
aF154.38516402244568
aF155.95931911468506
a.