(lp0
F145.3809530735016
aF145.08449602127075
aF145.13980889320374
aF145.36371302604675
aF144.72942304611206
aF145.17265582084656
aF145.06565594673157
aF145.11122703552246
aF145.21058297157288
aF145.06568598747253
aF145.01653909683228
aF144.79097199440002
aF145.11874723434448
aF144.8468599319458
aF144.9962821006775
aF145.33375096321106
aF145.59416699409485
aF145.03098011016846
aF145.20057797431946
aF144.67804312705994
aF144.76993489265442
aF145.28164410591125
aF145.30317902565002
aF145.08246493339539
aF145.6520869731903
aF144.72221088409424
aF144.78373289108276
aF144.54703402519226
aF144.99184489250183
aF144.9887158870697
aF144.92931008338928
aF145.25113201141357
aF145.06561088562012
aF145.37316608428955
aF144.82204699516296
aF145.74799299240112
aF145.166522026062
aF144.7423779964447
aF145.50084710121155
aF145.21395707130432
aF145.04092693328857
aF144.60642004013062
aF145.2447350025177
aF144.821772813797
aF145.56293416023254
aF145.2283480167389
aF145.21455478668213
aF144.67959094047546
aF145.15386199951172
aF145.13740706443787
aF145.1512429714203
aF145.28148007392883
aF145.1217119693756
aF144.94915008544922
aF143.70686602592468
aF145.2216830253601
aF145.65555787086487
aF145.826730966568
aF145.84419298171997
aF145.68016982078552
aF145.93330216407776
aF146.1783571243286
aF145.66895580291748
aF145.56266498565674
aF145.4044749736786
aF145.92245388031006
aF145.32103300094604
aF145.51600289344788
aF145.89986300468445
aF145.2340919971466
aF145.4151210784912
aF145.4597191810608
aF145.29544186592102
aF144.90738701820374
aF145.08022809028625
aF145.46401596069336
aF145.31721711158752
aF145.05462789535522
aF145.1615400314331
aF145.53748106956482
aF145.05792903900146
aF144.7770290374756
aF145.51444602012634
aF145.15850496292114
aF144.9561469554901
aF145.61195588111877
aF145.62064290046692
aF144.96687698364258
aF144.8496708869934
aF145.27118802070618
aF145.5225419998169
aF144.9234070777893
aF145.87309908866882
aF145.83235383033752
aF144.89863109588623
aF144.95122408866882
aF145.2019579410553
aF144.84657907485962
aF144.7795910835266
aF145.60946798324585
aF144.5027768611908
aF144.71730208396912
aF144.70797300338745
aF145.08313608169556
aF144.96415090560913
aF145.30007100105286
aF145.27952194213867
aF144.7793447971344
aF144.96055698394775
aF145.18534684181213
aF144.5041480064392
aF145.1627881526947
aF145.07179594039917
aF145.21263813972473
aF145.4156849384308
aF144.82343006134033
aF145.94099283218384
aF145.33684492111206
aF145.82254314422607
aF145.44962906837463
aF145.3171741962433
aF145.54842400550842
aF145.68316793441772
aF145.59642505645752
aF145.85342407226562
aF145.33226418495178
aF146.05565118789673
aF145.76413702964783
aF144.860857963562
aF145.30887293815613
aF145.86544609069824
aF145.71881103515625
aF145.5623300075531
aF145.29081296920776
aF145.7975070476532
aF146.38816094398499
aF146.4672110080719
aF146.1522572040558
aF145.86827206611633
aF145.5213119983673
aF145.03521013259888
aF145.1528799533844
aF145.69684100151062
aF145.33482384681702
aF145.58044910430908
aF145.29926204681396
aF145.66074180603027
aF145.6230149269104
aF145.77424812316895
a.