(lp0
F151.5934500694275
aF152.41704416275024
aF151.48579502105713
aF151.38208508491516
aF151.93309211730957
aF151.88098287582397
aF151.65345001220703
aF151.74730396270752
aF151.64998602867126
aF151.51607489585876
aF151.77937197685242
aF152.0673840045929
aF151.173241853714
aF152.28048515319824
aF151.46906995773315
aF152.34463596343994
aF152.15112805366516
aF152.11031293869019
aF151.3694610595703
aF152.81152200698853
aF151.50018405914307
aF152.27950716018677
aF151.52686214447021
aF152.8172311782837
aF151.4075620174408
aF152.36988496780396
aF151.21743512153625
aF152.32537293434143
aF151.8618769645691
aF152.42289900779724
aF151.73197102546692
aF151.89587998390198
aF151.28278398513794
aF151.9750759601593
aF151.90587306022644
aF152.578115940094
aF151.89293694496155
aF152.44960689544678
aF151.77038884162903
aF152.07625603675842
aF151.64147305488586
aF152.55142188072205
aF151.22391200065613
aF152.28093099594116
aF151.39772987365723
aF152.40409803390503
aF151.48284721374512
aF152.55700612068176
aF151.6532919406891
aF152.30287098884583
aF151.7916259765625
aF146.53166389465332
aF151.11260294914246
aF151.25326490402222
aF150.7315640449524
aF151.67509508132935
aF150.5197319984436
aF151.54337620735168
aF150.18145990371704
aF152.1078929901123
aF151.081139087677
aF151.2619218826294
aF150.63854384422302
aF151.11517596244812
aF150.44320392608643
aF150.93988800048828
aF151.40337085723877
aF151.34718084335327
aF150.3004698753357
aF152.0859158039093
aF150.90967679023743
aF151.71263194084167
aF151.3742699623108
aF152.05297303199768
aF150.8059458732605
aF151.67294812202454
aF151.49929308891296
aF151.4118299484253
aF151.585853099823
aF151.87818813323975
aF150.953871011734
aF151.32615494728088
aF150.87819600105286
aF151.81827092170715
aF150.85768103599548
aF151.6470959186554
aF150.7631959915161
aF151.69556593894958
aF150.9646439552307
aF151.54245686531067
aF151.0254189968109
aF151.5948131084442
aF150.71098804473877
aF151.76825499534607
aF151.53560185432434
aF151.65560293197632
aF151.47062301635742
aF151.6995530128479
aF151.00126910209656
aF152.33709979057312
aF151.51821208000183
aF151.89047980308533
aF151.8277678489685
aF151.73065185546875
aF151.397696018219
aF151.68279910087585
aF151.75793409347534
aF151.86514902114868
aF151.92895197868347
aF151.91404104232788
aF150.9532151222229
aF152.0404691696167
aF151.903461933136
aF151.91762900352478
aF151.42336797714233
aF152.14507389068604
aF151.01970410346985
aF151.8181450366974
aF151.2418510913849
aF151.8492021560669
aF151.76465702056885
aF151.82577204704285
aF151.5969889163971
aF151.94554686546326
aF151.91322493553162
aF152.06881308555603
aF151.41347193717957
aF152.24801993370056
aF151.6844928264618
aF151.79701495170593
aF151.57067704200745
aF152.45131278038025
aF151.31710195541382
aF151.9346399307251
aF151.87080001831055
aF151.57488799095154
aF151.68513107299805
aF152.35782289505005
aF151.42021203041077
aF152.38253116607666
aF152.34415912628174
aF151.8702049255371
aF151.38446402549744
aF152.03349113464355
aF152.49826002120972
aF152.34613513946533
aF152.1307179927826
aF152.10265684127808
aF151.99571895599365
a.