(lp0
F234.60891199111938
aF433.7166180610657
aF709.8215219974518
aF894.8889729976654
aF1078.372386932373
aF1261.8886201381683
aF1450.3932240009308
aF1634.9379830360413
aF1817.9238240718842
aF2025.0943751335144
aF2207.4275810718536
aF2389.412235021591
aF2572.4628100395203
aF2824.9957060813904
aF3081.2354049682617
a.