(lp0
F148.81873202323914
aF264.0261480808258
aF439.6806330680847
aF622.3409900665283
aF781.261775970459
aF910.0387649536133
aF1094.2108418941498
aF1278.8128700256348
aF1463.6032400131226
aF1648.7707600593567
aF1832.4400119781494
aF1977.7982320785522
aF2120.0314540863037
aF2235.012526035309
aF2395.7951390743256
aF2553.6055800914764
aF2738.5852999687195
aF2863.227427005768
aF2996.166584968567
aF3172.188234090805
aF3308.964548110962
aF3493.0219299793243
aF3651.2259221076965
aF3766.2284529209137
aF3899.409749031067
aF4019.021465063095
aF4140.902554988861
aF4298.974916934967
aF4461.179073095322
aF4643.774152040482
aF4827.372359991074
aF4959.244113922119
aF5109.552227973938
aF5291.680357933044
aF5444.0347509384155
aF5571.518247127533
aF5729.779586076736
aF5913.940556049347
aF6097.551719903946
aF6280.713362932205
aF6439.352283000946
aF6612.835802078247
aF6796.415498971939
aF6979.721981048584
aF7162.545368909836
aF7287.261579990387
aF7460.636770963669
aF7643.789647102356
aF7826.779549121857
aF8009.90819811821
aF8125.087754011154
aF8240.873088121414
aF8356.08391904831
aF8470.755902051926
aF8622.273096084595
aF8803.988749980927
aF8968.747040987015
aF9150.432624101639
aF9333.07019495964
aF9515.712858915329
aF9661.347471952438
aF9783.739464998245
aF9946.26447892189
aF10129.690479040146
aF10297.85298204422
aF10464.937534093857
aF10647.923655033112
aF10830.48564195633
aF11013.612072944641
aF11182.681128025055
aF11363.828090906143
aF11543.555809020996
aF11726.612248897552
aF11886.610284090042
aF12061.178957939148
aF12241.477531909943
aF12426.244908094406
aF12586.502835035324
aF12771.281476974487
aF12907.253237962723
aF13088.812243938446
aF13270.524965047836
aF13401.090240955353
aF13537.498477935791
aF13693.806855916977
aF13874.525643110275
aF14036.427073955536
aF14214.59883093834
aF14349.253915071487
aF14523.127897977829
aF14702.313352108002
aF14874.672455072403
aF15009.47245502472
aF15123.63650894165
aF15282.42442202568
aF15451.939436912537
aF15630.75094795227
aF15811.735599040985
aF15990.18490409851
aF16158.041244983673
aF16273.01047205925
aF16387.185087919235
aF16562.75373005867
aF16742.91989994049
aF16923.792391061783
aF17083.399301052094
aF17263.20612692833
aF17442.404803037643
aF17617.585601091385
aF17759.537014961243
aF17914.8531229496
aF18083.40352511406
aF18262.67342209816
aF18444.25573205948
aF18613.216155052185
aF18727.872397899628
aF18867.245775938034
aF19025.499502897263
aF19203.994213104248
aF19382.50379705429
aF19513.547159910202
aF19664.205642938614
aF19843.19310593605
aF19979.927947044373
aF20143.50532603264
aF20289.081568956375
aF20468.816020011902
aF20642.066556930542
aF20810.435107946396
aF20982.27024412155
aF21135.46413707733
aF21289.972872018814
aF21425.870538949966
aF21605.944718122482
aF21763.563393115997
aF21921.85577106476
aF22085.13500905037
aF22199.614936113358
aF22375.84316802025
aF22556.154654979706
aF22736.264446020126
aF22878.42247390747
aF23024.728753089905
aF23138.708218097687
aF23253.251060962677
aF23367.735569000244
aF23482.473378896713
aF23607.770567893982
aF23732.352625131607
aF23894.64457297325
aF24075.840122938156
aF24258.27272796631
aF24439.523164987564
aF24613.148741960526
aF24792.38125395775
aF24966.399744987488
aF25105.377308130264
aF25285.660404920578
aF25464.51194000244
aF25643.073939085007
aF25781.81866502762
aF25895.755739927292
aF26009.82984995842
aF26136.18374490738
aF26292.615255117416
aF26422.850322008133
aF26598.18859910965
aF26775.983231067657
aF26955.193094968796
aF27135.04812002182
aF27266.661754131317
aF27380.92458796501
aF27495.610289096832
aF27642.736404895782
aF27794.634531021118
aF27909.10127711296
aF28070.67079591751
aF28231.084593057632
aF28410.1489610672
aF28561.071187973022
aF28704.100155115128
aF28879.260438919067
aF29059.17773795128
aF29241.01517510414
aF29421.20680809021
aF29596.986587047577
aF29776.167479991913
aF29954.46943807602
aF30134.741431951523
aF30304.19203710556
aF30471.02304291725
aF30651.110985040665
aF30766.720856904984
aF30881.69892501831
aF30996.14643907547
aF31110.684052944183
aF31229.135509967804
aF31399.074367046356
aF31513.09250998497
aF31627.16066789627
a.