(lp0
F130.19857716560364
aF290.0741729736328
aF406.5735490322113
aF580.6538450717926
aF755.5851781368256
aF873.5260081291199
aF989.7890350818634
aF1105.9285640716553
aF1221.8820769786835
aF1338.3121631145477
aF1459.0460350513458
aF1575.5387420654297
aF1692.4240181446075
aF1808.629534959793
aF1950.299084186554
a.