(lp0
F201.84449291229248
aF384.7194528579712
aF602.3565428256989
aF810.0182328224182
aF987.2155129909515
aF1145.9411280155182
aF1306.0258989334106
aF1466.4585258960724
aF1630.6640729904175
aF1848.3306868076324
aF2015.9778928756714
aF2184.3632638454437
aF2352.215530872345
aF2538.032522916794
aF2693.7044608592987
aF2849.4755098819733
aF3005.0318529605865
aF3160.5743038654327
aF3316.8165748119354
aF3472.7009789943695
aF3655.3868618011475
aF3817.198150873184
aF3972.76903796196
aF4128.741488933563
aF4284.730057001114
aF4440.485234975815
aF4596.2700798511505
aF4777.737529993057
aF4934.552857875824
aF5090.26881980896
aF5250.32484292984
aF5470.386925935745
aF5627.048761844635
aF5783.3263058662415
aF5989.742282867432
aF6146.925346851349
aF6303.580440998077
aF6459.447950839996
aF6615.139339923859
aF6805.381357908249
aF6974.068537950516
aF7143.807662010193
aF7300.634970903397
aF7457.286547899246
aF7665.206900835037
aF7834.250306844711
aF8038.032643795013
aF8239.012349843979
aF8411.715483903885
aF8569.966738939285
aF8726.767563819885
aF8884.066871881485
aF9040.718356847763
aF9197.26575088501
aF9353.126834869385
aF9508.95492196083
aF9664.685269832611
aF9820.543762922287
aF10038.02450799942
aF10194.66476392746
aF10351.368275880814
aF10508.801733016968
aF10689.444370985031
aF10846.265105009079
aF11002.515847921371
aF11191.031107902527
aF11413.331570863724
aF11569.980204820633
aF11789.912468910217
aF11999.465758800507
aF12161.844112873077
aF12318.633672952652
aF12524.72987484932
aF12690.050395965576
aF12855.7331969738
aF13033.818329811096
aF13192.90547800064
aF13354.719376802444
aF13510.584114789963
aF13666.461447954178
aF13822.29107093811
aF13987.875289916992
aF14151.42119383812
aF14308.215564966202
aF14464.954655885696
aF14622.80086183548
aF14779.504479885101
aF14935.172888994217
aF15090.943988800049
aF15246.91395497322
aF15403.13955283165
aF15559.431968927383
aF15715.622317790985
aF15871.532513856888
aF16029.838339805603
aF16186.330868959427
aF16342.530772924423
aF16507.30038881302
aF16663.33719086647
aF16818.95454788208
aF16974.93380880356
aF17130.862263917923
aF17313.976427793503
aF17470.22643685341
aF17626.041370868683
aF17781.64125084877
aF17938.44359278679
aF18121.983757972717
aF18290.17964887619
aF18448.734653949738
aF18664.188552856445
aF18873.287467956543
aF19037.790695905685
aF19194.08540391922
aF19349.780045986176
aF19505.60911297798
aF19670.628430843353
aF19885.416210889816
aF20042.04194188118
aF20203.0026140213
aF20377.046548843384
aF20535.326914787292
aF20695.82117486
aF20855.293878793716
aF21012.138067007065
aF21168.094925880432
aF21343.989904880524
aF21499.629546880722
aF21655.245112895966
aF21828.750139951706
aF22018.74910092354
aF22175.267277002335
aF22339.39382481575
aF22494.98987197876
aF22650.741801977158
aF22806.53354382515
aF22971.49773478508
aF23127.041266918182
aF23285.244000911713
aF23461.702117919922
aF23622.74316096306
aF23778.426134824753
aF23956.499133825302
aF24127.6585958004
aF24284.137871980667
aF24440.813341856003
aF24599.761405944824
aF24761.4520778656
aF24917.91882300377
aF25073.823386907578
aF25229.841621875763
aF25385.893348932266
aF25559.192911863327
aF25715.16529893875
aF25874.701397895813
aF26035.504992961884
aF26193.441378831863
aF26352.05818796158
aF26523.511595010757
aF26680.025515794754
aF26835.80475783348
aF26991.772934913635
aF27161.912170886993
aF27345.81417298317
aF27519.65317797661
aF27676.279282808304
aF27856.611737966537
aF28013.157465934753
aF28188.147399902344
aF28379.16032886505
aF28535.855162858963
aF28691.601692914963
aF28847.452895879745
aF29003.103920936584
aF29158.091547966003
aF29344.352326869965
aF29497.406119823456
aF29651.830195903778
aF29806.160519838333
aF29960.321615934372
aF30114.21143579483
aF30267.550189971924
aF30420.719533920288
aF30573.604156970978
aF30740.754452943802
aF30894.338006973267
aF31048.35957980156
aF31202.15516090393
aF31355.884697914124
aF31509.382344961166
aF31662.540707826614
aF31815.55704188347
aF31968.452818870544
aF32121.7558259964
aF32275.86593389511
aF32429.945499897003
aF32583.86440396309
aF32737.73655796051
aF32891.48632001877
aF33044.7577188015
a.